; ModuleID = 'bench/openssl/original/mdc2_internal_test.ll'
source_filename = "bench/openssl/original/mdc2_internal_test.ll"
target datalayout = "e-m:e-p270:32:32-p271:32:32-p272:64:64-i64:64-i128:128-f80:128-n8:16:32:64-S128"
target triple = "x86_64-pc-linux-gnu"

%struct.TESTDATA = type { ptr, [16 x i8] }
%struct.mdc2_ctx_st = type { i32, [8 x i8], [8 x i8], [8 x i8], i32 }

@.str = private unnamed_addr constant [10 x i8] c"test_mdc2\00", align 1
@tests = internal unnamed_addr constant [1 x %struct.TESTDATA] [%struct.TESTDATA { ptr @.str.5, [16 x i8] c"B\E5\0C\D2$\BA\CE\BAv\0B\DD+\D4\09(\1A" }], align 16
@.str.1 = private unnamed_addr constant [37 x i8] c"../openssl/test/mdc2_internal_test.c\00", align 1
@.str.2 = private unnamed_addr constant [18 x i8] c"testdata.expected\00", align 1
@.str.3 = private unnamed_addr constant [3 x i8] c"md\00", align 1
@.str.4 = private unnamed_addr constant [32 x i8] c"mdc2 test %d: unexpected output\00", align 1
@.str.5 = private unnamed_addr constant [25 x i8] c"Now is the time for all \00", align 1

; Function Attrs: nounwind uwtable
define dso_local noundef i32 @setup_tests() local_unnamed_addr #0 {
  tail call void @add_all_tests(ptr noundef nonnull @.str, ptr noundef nonnull @test_mdc2, i32 noundef 1, i32 noundef 1) #5
  ret i32 1
}

declare void @add_all_tests(ptr noundef, ptr noundef, i32 noundef, i32 noundef) local_unnamed_addr #1

; Function Attrs: nounwind uwtable
define internal range(i32 0, 2) i32 @test_mdc2(i32 noundef %0) #0 {
  %2 = alloca [16 x i8], align 16
  %3 = alloca %struct.mdc2_ctx_st, align 4
  %4 = alloca %struct.TESTDATA, align 8
  call void @llvm.lifetime.start.p0(i64 16, ptr nonnull %2) #5
  call void @llvm.lifetime.start.p0(i64 32, ptr nonnull %3) #5
  call void @llvm.lifetime.start.p0(i64 24, ptr nonnull %4) #5
  %5 = sext i32 %0 to i64
  %6 = getelementptr inbounds [1 x %struct.TESTDATA], ptr @tests, i64 0, i64 %5
  call void @llvm.memcpy.p0.p0.i64(ptr noundef nonnull align 8 dereferenceable(24) %4, ptr noundef nonnull align 8 dereferenceable(24) %6, i64 24, i1 false), !tbaa.struct !4
  %7 = call i32 @MDC2_Init(ptr noundef nonnull %3) #5
  %8 = load ptr, ptr %4, align 8, !tbaa !11
  %9 = call i64 @strlen(ptr noundef nonnull dereferenceable(1) %8) #6
  %10 = call i32 @MDC2_Update(ptr noundef nonnull %3, ptr noundef nonnull %8, i64 noundef %9) #5
  %11 = call i32 @MDC2_Final(ptr noundef nonnull %2, ptr noundef nonnull %3) #5
  %12 = getelementptr inbounds nuw i8, ptr %4, i64 8
  %13 = call i32 @test_mem_eq(ptr noundef nonnull @.str.1, i32 noundef 65, ptr noundef nonnull @.str.2, ptr noundef nonnull @.str.3, ptr noundef nonnull %12, i64 noundef 16, ptr noundef nonnull %2, i64 noundef 16) #5
  %.not = icmp eq i32 %13, 0
  br i1 %.not, label %14, label %15

14:                                               ; preds = %1
  call void (ptr, i32, ptr, ...) @test_info(ptr noundef nonnull @.str.1, i32 noundef 66, ptr noundef nonnull @.str.4, i32 noundef %0) #5
  br label %15

15:                                               ; preds = %1, %14
  %.0 = phi i32 [ 0, %14 ], [ 1, %1 ]
  call void @llvm.lifetime.end.p0(i64 24, ptr nonnull %4) #5
  call void @llvm.lifetime.end.p0(i64 32, ptr nonnull %3) #5
  call void @llvm.lifetime.end.p0(i64 16, ptr nonnull %2) #5
  ret i32 %.0
}

; Function Attrs: mustprogress nocallback nofree nosync nounwind willreturn memory(argmem: readwrite)
declare void @llvm.lifetime.start.p0(i64 immarg, ptr captures(none)) #2

; Function Attrs: mustprogress nocallback nofree nounwind willreturn memory(argmem: readwrite)
declare void @llvm.memcpy.p0.p0.i64(ptr noalias writeonly captures(none), ptr noalias readonly captures(none), i64, i1 immarg) #3

declare i32 @MDC2_Init(ptr noundef) local_unnamed_addr #1

declare i32 @MDC2_Update(ptr noundef, ptr noundef, i64 noundef) local_unnamed_addr #1

; Function Attrs: mustprogress nofree nounwind willreturn memory(argmem: read)
declare i64 @strlen(ptr noundef captures(none)) local_unnamed_addr #4

declare i32 @MDC2_Final(ptr noundef, ptr noundef) local_unnamed_addr #1

declare i32 @test_mem_eq(ptr noundef, i32 noundef, ptr noundef, ptr noundef, ptr noundef, i64 noundef, ptr noundef, i64 noundef) local_unnamed_addr #1

declare void @test_info(ptr noundef, i32 noundef, ptr noundef, ...) local_unnamed_addr #1

; Function Attrs: mustprogress nocallback nofree nosync nounwind willreturn memory(argmem: readwrite)
declare void @llvm.lifetime.end.p0(i64 immarg, ptr captures(none)) #2


!llvm.module.flags = !{!0, !1, !2, !3}

!0 = !{i32 1, !"wchar_size", i32 4}
!1 = !{i32 8, !"PIC Level", i32 2}
!2 = !{i32 7, !"PIE Level", i32 2}
!3 = !{i32 7, !"uwtable", i32 2}
!4 = !{i64 0, i64 8, !5, i64 8, i64 16, !10}
!5 = !{!6, !6, i64 0}
!6 = !{!"p1 omnipotent char", !7, i64 0}
!7 = !{!"any pointer", !8, i64 0}
!8 = !{!"omnipotent char", !9, i64 0}
!9 = !{!"Simple C/C++ TBAA"}
!10 = !{!8, !8, i64 0}
!11 = !{!12, !6, i64 0}
!12 = !{!"", !6, i64 0, !8, i64 8}
